target datalayout = "e-m:e-p270:32:32-p271:32:32-p272:64:64-i64:64-i128:128-f80:128-n8:16:32:64-S128"
target triple = "x86_64-pc-linux-gnu"

%struct.AVPixFmtDescriptor = type { ptr, i8, i8, i8, i64, [4 x %struct.AVComponentDescriptor], ptr }
%struct.AVComponentDescriptor = type { i32, i32, i32, i32, i32 }

; Function Attrs: nounwind uwtable
define i32 @av_image_fill_plane_sizes(ptr noundef %0, i32 noundef %1, i32 noundef %2, ptr noundef %3) #0 {
  %5 = alloca i32, align 4
  %6 = alloca ptr, align 8
  %7 = alloca i32, align 4
  %8 = alloca i32, align 4
  %9 = alloca ptr, align 8
  %10 = alloca i32, align 4
  %11 = alloca [4 x i32], align 16
  %12 = alloca ptr, align 8
  %13 = alloca i32, align 4
  %14 = alloca i32, align 4
  %15 = alloca i32, align 4
  store ptr %0, ptr %6, align 8, !tbaa !26
  store i32 %1, ptr %7, align 4, !tbaa !11
  store i32 %2, ptr %8, align 4, !tbaa !11
  store ptr %3, ptr %9, align 8, !tbaa !26
  call void @llvm.lifetime.start.p0(i64 4, ptr %10) #9
  call void @llvm.lifetime.start.p0(i64 16, ptr %11) #9
  call void @llvm.memset.p0.i64(ptr align 16 %11, i8 0, i64 16, i1 false)
  call void @llvm.lifetime.start.p0(i64 8, ptr %12) #9
  %16 = load i32, ptr %7, align 4, !tbaa !11
  %17 = call ptr @av_pix_fmt_desc_get(i32 noundef %16)
  store ptr %17, ptr %12, align 8, !tbaa !9
  %18 = load ptr, ptr %6, align 8, !tbaa !26
  call void @llvm.memset.p0.i64(ptr align 8 %18, i8 0, i64 32, i1 false)
  %19 = load ptr, ptr %12, align 8, !tbaa !9
  %20 = icmp ne ptr %19, null
  br i1 %20, label %21, label %27

21:                                               ; preds = %4
  %22 = load ptr, ptr %12, align 8, !tbaa !9
  %23 = getelementptr inbounds nuw %struct.AVPixFmtDescriptor, ptr %22, i32 0, i32 4
  %24 = load i64, ptr %23, align 8, !tbaa !20
  %25 = and i64 %24, 8
  %26 = icmp ne i64 %25, 0
  br i1 %26, label %27, label %28

27:                                               ; preds = %21, %4
  store i32 -22, ptr %5, align 4
  store i32 1, ptr %13, align 4
  br label %134

28:                                               ; preds = %21
  %29 = load ptr, ptr %9, align 8, !tbaa !26
  %30 = getelementptr inbounds i64, ptr %29, i64 0
  %31 = load i64, ptr %30, align 8, !tbaa !28
  %32 = load i32, ptr %8, align 4, !tbaa !11
  %33 = sext i32 %32 to i64
  %34 = udiv i64 -1, %33
  %35 = icmp ugt i64 %31, %34
  br i1 %35, label %36, label %37

36:                                               ; preds = %28
  store i32 -22, ptr %5, align 4
  store i32 1, ptr %13, align 4
  br label %134

37:                                               ; preds = %28
  %38 = load ptr, ptr %9, align 8, !tbaa !26
  %39 = getelementptr inbounds i64, ptr %38, i64 0
  %40 = load i64, ptr %39, align 8, !tbaa !28
  %41 = load i32, ptr %8, align 4, !tbaa !11
  %42 = sext i32 %41 to i64
  %43 = mul i64 %40, %42
  %44 = load ptr, ptr %6, align 8, !tbaa !26
  %45 = getelementptr inbounds i64, ptr %44, i64 0
  store i64 %43, ptr %45, align 8, !tbaa !28
  %46 = load ptr, ptr %12, align 8, !tbaa !9
  %47 = getelementptr inbounds nuw %struct.AVPixFmtDescriptor, ptr %46, i32 0, i32 4
  %48 = load i64, ptr %47, align 8, !tbaa !20
  %49 = and i64 %48, 2
  %50 = icmp ne i64 %49, 0
  br i1 %50, label %51, label %54

51:                                               ; preds = %37
  %52 = load ptr, ptr %6, align 8, !tbaa !26
  %53 = getelementptr inbounds i64, ptr %52, i64 1
  store i64 1024, ptr %53, align 8, !tbaa !28
  store i32 0, ptr %5, align 4
  store i32 1, ptr %13, align 4
  br label %134

54:                                               ; preds = %37
  store i32 0, ptr %10, align 4, !tbaa !11
  br label %55

55:                                               ; preds = %68, %54
  %56 = load i32, ptr %10, align 4, !tbaa !11
  %57 = icmp slt i32 %56, 4
  br i1 %57, label %58, label %71

58:                                               ; preds = %55
  %59 = load ptr, ptr %12, align 8, !tbaa !9
  %60 = getelementptr inbounds nuw %struct.AVPixFmtDescriptor, ptr %59, i32 0, i32 5
  %61 = load i32, ptr %10, align 4, !tbaa !11
  %62 = sext i32 %61 to i64
  %63 = getelementptr inbounds [4 x %struct.AVComponentDescriptor], ptr %60, i64 0, i64 %62
  %64 = getelementptr inbounds nuw %struct.AVComponentDescriptor, ptr %63, i32 0, i32 0
  %65 = load i32, ptr %64, align 4, !tbaa !17
  %66 = sext i32 %65 to i64
  %67 = getelementptr inbounds [4 x i32], ptr %11, i64 0, i64 %66
  store i32 1, ptr %67, align 4, !tbaa !11
  br label %68

68:                                               ; preds = %58
  %69 = load i32, ptr %10, align 4, !tbaa !11
  %70 = add nsw i32 %69, 1
  store i32 %70, ptr %10, align 4, !tbaa !11
  br label %55, !llvm.loop !29

71:                                               ; preds = %55
  store i32 1, ptr %10, align 4, !tbaa !11
  br label %72

72:                                               ; preds = %130, %71
  %73 = load i32, ptr %10, align 4, !tbaa !11
  %74 = icmp slt i32 %73, 4
  br i1 %74, label %75, label %81

75:                                               ; preds = %72
  %76 = load i32, ptr %10, align 4, !tbaa !11
  %77 = sext i32 %76 to i64
  %78 = getelementptr inbounds [4 x i32], ptr %11, i64 0, i64 %77
  %79 = load i32, ptr %78, align 4, !tbaa !11
  %80 = icmp ne i32 %79, 0
  br label %81

81:                                               ; preds = %75, %72
  %82 = phi i1 [ false, %72 ], [ %80, %75 ]
  br i1 %82, label %83, label %133

83:                                               ; preds = %81
  call void @llvm.lifetime.start.p0(i64 4, ptr %14) #9
  call void @llvm.lifetime.start.p0(i64 4, ptr %15) #9
  %84 = load i32, ptr %10, align 4, !tbaa !11
  %85 = icmp eq i32 %84, 1
  br i1 %85, label %89, label %86

86:                                               ; preds = %83
  %87 = load i32, ptr %10, align 4, !tbaa !11
  %88 = icmp eq i32 %87, 2
  br i1 %88, label %89, label %94

89:                                               ; preds = %86, %83
  %90 = load ptr, ptr %12, align 8, !tbaa !9
  %91 = getelementptr inbounds nuw %struct.AVPixFmtDescriptor, ptr %90, i32 0, i32 3
  %92 = load i8, ptr %91, align 2, !tbaa !30
  %93 = zext i8 %92 to i32
  br label %95

94:                                               ; preds = %86
  br label %95

95:                                               ; preds = %94, %89
  %96 = phi i32 [ %93, %89 ], [ 0, %94 ]
  store i32 %96, ptr %15, align 4, !tbaa !11
  %97 = load i32, ptr %8, align 4, !tbaa !11
  %98 = load i32, ptr %15, align 4, !tbaa !11
  %99 = shl i32 1, %98
  %100 = add nsw i32 %97, %99
  %101 = sub nsw i32 %100, 1
  %102 = load i32, ptr %15, align 4, !tbaa !11
  %103 = ashr i32 %101, %102
  store i32 %103, ptr %14, align 4, !tbaa !11
  %104 = load ptr, ptr %9, align 8, !tbaa !26
  %105 = load i32, ptr %10, align 4, !tbaa !11
  %106 = sext i32 %105 to i64
  %107 = getelementptr inbounds i64, ptr %104, i64 %106
  %108 = load i64, ptr %107, align 8, !tbaa !28
  %109 = load i32, ptr %14, align 4, !tbaa !11
  %110 = sext i32 %109 to i64
  %111 = udiv i64 -1, %110
  %112 = icmp ugt i64 %108, %111
  br i1 %112, label %113, label %114

113:                                              ; preds = %95
  store i32 -22, ptr %5, align 4
  store i32 1, ptr %13, align 4
  br label %127

114:                                              ; preds = %95
  %115 = load i32, ptr %14, align 4, !tbaa !11
  %116 = sext i32 %115 to i64
  %117 = load ptr, ptr %9, align 8, !tbaa !26
  %118 = load i32, ptr %10, align 4, !tbaa !11
  %119 = sext i32 %118 to i64
  %120 = getelementptr inbounds i64, ptr %117, i64 %119
  %121 = load i64, ptr %120, align 8, !tbaa !28
  %122 = mul i64 %116, %121
  %123 = load ptr, ptr %6, align 8, !tbaa !26
  %124 = load i32, ptr %10, align 4, !tbaa !11
  %125 = sext i32 %124 to i64
  %126 = getelementptr inbounds i64, ptr %123, i64 %125
  store i64 %122, ptr %126, align 8, !tbaa !28
  store i32 0, ptr %13, align 4
  br label %127

127:                                              ; preds = %114, %113
  call void @llvm.lifetime.end.p0(i64 4, ptr %15) #9
  call void @llvm.lifetime.end.p0(i64 4, ptr %14) #9
  %128 = load i32, ptr %13, align 4
  switch i32 %128, label %134 [
    i32 0, label %129
  ]

129:                                              ; preds = %127
  br label %130

130:                                              ; preds = %129
  %131 = load i32, ptr %10, align 4, !tbaa !11
  %132 = add nsw i32 %131, 1
  store i32 %132, ptr %10, align 4, !tbaa !11
  br label %72, !llvm.loop !31

133:                                              ; preds = %81
  store i32 0, ptr %5, align 4
  store i32 1, ptr %13, align 4
  br label %134

134:                                              ; preds = %133, %127, %51, %36, %27
  call void @llvm.lifetime.end.p0(i64 8, ptr %12) #9
  call void @llvm.lifetime.end.p0(i64 16, ptr %11) #9
  call void @llvm.lifetime.end.p0(i64 4, ptr %10) #9
  %135 = load i32, ptr %5, align 4
  ret i32 %135
}

; Function Attrs: nounwind uwtable
define i32 @av_image_fill_pointers(ptr noundef %0, i32 noundef %1, i32 noundef %2, ptr noundef %3, ptr noundef %4) #0 {
  %6 = alloca i32, align 4
  %7 = alloca ptr, align 8
  %8 = alloca i32, align 4
  %9 = alloca i32, align 4
  %10 = alloca ptr, align 8
  %11 = alloca ptr, align 8
  %12 = alloca i32, align 4
  %13 = alloca i32, align 4
  %14 = alloca [4 x i64], align 16
  %15 = alloca [4 x i64], align 16
  %16 = alloca i32, align 4
  store ptr %0, ptr %7, align 8, !tbaa !32
  store i32 %1, ptr %8, align 4, !tbaa !11
  store i32 %2, ptr %9, align 4, !tbaa !11
  store ptr %3, ptr %10, align 8, !tbaa !35
  store ptr %4, ptr %11, align 8, !tbaa !4
  call void @llvm.lifetime.start.p0(i64 4, ptr %12) #9
  call void @llvm.lifetime.start.p0(i64 4, ptr %13) #9
  call void @llvm.lifetime.start.p0(i64 32, ptr %14) #9
  call void @llvm.lifetime.start.p0(i64 32, ptr %15) #9
  %17 = load ptr, ptr %7, align 8, !tbaa !32
  call void @llvm.memset.p0.i64(ptr align 8 %17, i8 0, i64 32, i1 false)
  store i32 0, ptr %12, align 4, !tbaa !11
  br label %18

18:                                               ; preds = %31, %5
  %19 = load i32, ptr %12, align 4, !tbaa !11
  %20 = icmp slt i32 %19, 4
  br i1 %20, label %21, label %34

21:                                               ; preds = %18
  %22 = load ptr, ptr %11, align 8, !tbaa !4
  %23 = load i32, ptr %12, align 4, !tbaa !11
  %24 = sext i32 %23 to i64
  %25 = getelementptr inbounds i32, ptr %22, i64 %24
  %26 = load i32, ptr %25, align 4, !tbaa !11
  %27 = sext i32 %26 to i64
  %28 = load i32, ptr %12, align 4, !tbaa !11
  %29 = sext i32 %28 to i64
  %30 = getelementptr inbounds [4 x i64], ptr %14, i64 0, i64 %29
  store i64 %27, ptr %30, align 8, !tbaa !28
  br label %31

31:                                               ; preds = %21
  %32 = load i32, ptr %12, align 4, !tbaa !11
  %33 = add nsw i32 %32, 1
  store i32 %33, ptr %12, align 4, !tbaa !11
  br label %18, !llvm.loop !36

34:                                               ; preds = %18
  %35 = getelementptr inbounds [4 x i64], ptr %15, i64 0, i64 0
  %36 = load i32, ptr %8, align 4, !tbaa !11
  %37 = load i32, ptr %9, align 4, !tbaa !11
  %38 = getelementptr inbounds [4 x i64], ptr %14, i64 0, i64 0
  %39 = call i32 @av_image_fill_plane_sizes(ptr noundef %35, i32 noundef %36, i32 noundef %37, ptr noundef %38)
  store i32 %39, ptr %13, align 4, !tbaa !11
  %40 = load i32, ptr %13, align 4, !tbaa !11
  %41 = icmp slt i32 %40, 0
  br i1 %41, label %42, label %44

42:                                               ; preds = %34
  %43 = load i32, ptr %13, align 4, !tbaa !11
  store i32 %43, ptr %6, align 4
  store i32 1, ptr %16, align 4
  br label %112

44:                                               ; preds = %34
  store i32 0, ptr %13, align 4, !tbaa !11
  store i32 0, ptr %12, align 4, !tbaa !11
  br label %45

45:                                               ; preds = %67, %44
  %46 = load i32, ptr %12, align 4, !tbaa !11
  %47 = icmp slt i32 %46, 4
  br i1 %47, label %48, label %70

48:                                               ; preds = %45
  %49 = load i32, ptr %12, align 4, !tbaa !11
  %50 = sext i32 %49 to i64
  %51 = getelementptr inbounds [4 x i64], ptr %15, i64 0, i64 %50
  %52 = load i64, ptr %51, align 8, !tbaa !28
  %53 = load i32, ptr %13, align 4, !tbaa !11
  %54 = sub nsw i32 2147483647, %53
  %55 = sext i32 %54 to i64
  %56 = icmp ugt i64 %52, %55
  br i1 %56, label %57, label %58

57:                                               ; preds = %48
  store i32 -22, ptr %6, align 4
  store i32 1, ptr %16, align 4
  br label %112

58:                                               ; preds = %48
  %59 = load i32, ptr %12, align 4, !tbaa !11
  %60 = sext i32 %59 to i64
  %61 = getelementptr inbounds [4 x i64], ptr %15, i64 0, i64 %60
  %62 = load i64, ptr %61, align 8, !tbaa !28
  %63 = load i32, ptr %13, align 4, !tbaa !11
  %64 = sext i32 %63 to i64
  %65 = add i64 %64, %62
  %66 = trunc i64 %65 to i32
  store i32 %66, ptr %13, align 4, !tbaa !11
  br label %67

67:                                               ; preds = %58
  %68 = load i32, ptr %12, align 4, !tbaa !11
  %69 = add nsw i32 %68, 1
  store i32 %69, ptr %12, align 4, !tbaa !11
  br label %45, !llvm.loop !37

70:                                               ; preds = %45
  %71 = load ptr, ptr %10, align 8, !tbaa !35
  %72 = icmp ne ptr %71, null
  br i1 %72, label %75, label %73

73:                                               ; preds = %70
  %74 = load i32, ptr %13, align 4, !tbaa !11
  store i32 %74, ptr %6, align 4
  store i32 1, ptr %16, align 4
  br label %112

75:                                               ; preds = %70
  %76 = load ptr, ptr %10, align 8, !tbaa !35
  %77 = load ptr, ptr %7, align 8, !tbaa !32
  %78 = getelementptr inbounds ptr, ptr %77, i64 0
  store ptr %76, ptr %78, align 8, !tbaa !35
  store i32 1, ptr %12, align 4, !tbaa !11
  br label %79

79:                                               ; preds = %107, %75
  %80 = load i32, ptr %12, align 4, !tbaa !11
  %81 = icmp slt i32 %80, 4
  br i1 %81, label %82, label %88

82:                                               ; preds = %79
  %83 = load i32, ptr %12, align 4, !tbaa !11
  %84 = sext i32 %83 to i64
  %85 = getelementptr inbounds [4 x i64], ptr %15, i64 0, i64 %84
  %86 = load i64, ptr %85, align 8, !tbaa !28
  %87 = icmp ne i64 %86, 0
  br label %88

88:                                               ; preds = %82, %79
  %89 = phi i1 [ false, %79 ], [ %87, %82 ]
  br i1 %89, label %90, label %110

90:                                               ; preds = %88
  %91 = load ptr, ptr %7, align 8, !tbaa !32
  %92 = load i32, ptr %12, align 4, !tbaa !11
  %93 = sub nsw i32 %92, 1
  %94 = sext i32 %93 to i64
  %95 = getelementptr inbounds ptr, ptr %91, i64 %94
  %96 = load ptr, ptr %95, align 8, !tbaa !35
  %97 = load i32, ptr %12, align 4, !tbaa !11
  %98 = sub nsw i32 %97, 1
  %99 = sext i32 %98 to i64
  %100 = getelementptr inbounds [4 x i64], ptr %15, i64 0, i64 %99
  %101 = load i64, ptr %100, align 8, !tbaa !28
  %102 = getelementptr inbounds nuw i8, ptr %96, i64 %101
  %103 = load ptr, ptr %7, align 8, !tbaa !32
  %104 = load i32, ptr %12, align 4, !tbaa !11
  %105 = sext i32 %104 to i64
  %106 = getelementptr inbounds ptr, ptr %103, i64 %105
  store ptr %102, ptr %106, align 8, !tbaa !35
  br label %107

107:                                              ; preds = %90
  %108 = load i32, ptr %12, align 4, !tbaa !11
  %109 = add nsw i32 %108, 1
  store i32 %109, ptr %12, align 4, !tbaa !11
  br label %79, !llvm.loop !38

110:                                              ; preds = %88
  %111 = load i32, ptr %13, align 4, !tbaa !11
  store i32 %111, ptr %6, align 4
  store i32 1, ptr %16, align 4
  br label %112

112:                                              ; preds = %110, %73, %57, %42
  call void @llvm.lifetime.end.p0(i64 32, ptr %15) #9
  call void @llvm.lifetime.end.p0(i64 32, ptr %14) #9
  call void @llvm.lifetime.end.p0(i64 4, ptr %13) #9
  call void @llvm.lifetime.end.p0(i64 4, ptr %12) #9
  %113 = load i32, ptr %6, align 4
  ret i32 %113
}