; Function Attrs: nounwind uwtable
define i32 @av_image_fill_pointers(ptr noundef writeonly captures(none) initializes((0, 32)) %0, i32 noundef %1, i32 noundef %2, ptr noundef %3, ptr noundef readonly captures(none) %4) local_unnamed_addr #3 {
  %6 = alloca [4 x i32], align 16
  %7 = alloca [4 x i64], align 16
  %8 = alloca [4 x i64], align 16
  call void @llvm.lifetime.start.p0(i64 32, ptr nonnull %7) #11
  call void @llvm.lifetime.start.p0(i64 32, ptr nonnull %8) #11
  tail call void @llvm.memset.p0.i64(ptr noundef nonnull align 8 dereferenceable(32) %0, i8 0, i64 32, i1 false)
  br label %9

9:                                                ; preds = %5, %9
  %indvars.iv = phi i64 [ 0, %5 ], [ %indvars.iv.next, %9 ]
  %10 = getelementptr inbounds nuw i32, ptr %4, i64 %indvars.iv
  %11 = load i32, ptr %10, align 4, !tbaa !10
  %12 = sext i32 %11 to i64
  %13 = getelementptr inbounds nuw [4 x i64], ptr %7, i64 0, i64 %indvars.iv
  store i64 %12, ptr %13, align 8, !tbaa !20
  %indvars.iv.next = add nuw nsw i64 %indvars.iv, 1
  %exitcond.not = icmp eq i64 %indvars.iv.next, 4
  br i1 %exitcond.not, label %14, label %9, !llvm.loop !24

14:                                               ; preds = %9
  call void @llvm.lifetime.start.p0(i64 16, ptr nonnull %6) #11
  call void @llvm.memset.p0.i64(ptr noundef nonnull align 16 dereferenceable(16) %6, i8 0, i64 16, i1 false)
  %15 = tail call ptr @av_pix_fmt_desc_get(i32 noundef %1) #11
  call void @llvm.memset.p0.i64(ptr noundef nonnull align 16 dereferenceable(32) %8, i8 0, i64 32, i1 false)
  %.not.i = icmp eq ptr %15, null
  br i1 %.not.i, label %av_image_fill_plane_sizes.exit.thread, label %16

16:                                               ; preds = %14
  %17 = getelementptr inbounds nuw i8, ptr %15, i64 16
  %18 = load i64, ptr %17, align 8, !tbaa !13
  %19 = and i64 %18, 8
  %.not40.i = icmp eq i64 %19, 0
  br i1 %.not40.i, label %20, label %av_image_fill_plane_sizes.exit.thread

20:                                               ; preds = %16
  %21 = load i64, ptr %7, align 16, !tbaa !20
  %22 = sext i32 %2 to i64
  %mul.i = tail call { i64, i1 } @llvm.umul.with.overflow.i64(i64 %22, i64 %21)
  %mul.ov.i = extractvalue { i64, i1 } %mul.i, 1
  br i1 %mul.ov.i, label %av_image_fill_plane_sizes.exit.thread, label %23

23:                                               ; preds = %20
  %24 = mul i64 %21, %22
  store i64 %24, ptr %8, align 16, !tbaa !20
  %25 = and i64 %18, 2
  %.not41.i = icmp eq i64 %25, 0
  br i1 %.not41.i, label %.preheader47.i, label %27

.preheader47.i:                                   ; preds = %23
  %26 = getelementptr inbounds nuw i8, ptr %15, i64 24
  br label %31

27:                                               ; preds = %23
  %28 = getelementptr inbounds nuw i8, ptr %8, i64 8
  store i64 1024, ptr %28, align 8, !tbaa !20
  br label %av_image_fill_plane_sizes.exit

.preheader.i:                                     ; preds = %31
  %29 = getelementptr inbounds nuw i8, ptr %15, i64 10
  %30 = add i32 %2, -1
  br label %36

31:                                               ; preds = %31, %.preheader47.i
  %indvars.iv.i = phi i64 [ 0, %.preheader47.i ], [ %indvars.iv.next.i, %31 ]
  %32 = getelementptr inbounds nuw [4 x %struct.AVComponentDescriptor], ptr %26, i64 0, i64 %indvars.iv.i
  %33 = load i32, ptr %32, align 4, !tbaa !9
  %34 = sext i32 %33 to i64
  %35 = getelementptr inbounds [4 x i32], ptr %6, i64 0, i64 %34
  store i32 1, ptr %35, align 4, !tbaa !10
  %indvars.iv.next.i = add nuw nsw i64 %indvars.iv.i, 1
  %exitcond.not.i = icmp eq i64 %indvars.iv.next.i, 4
  br i1 %exitcond.not.i, label %.preheader.i, label %31, !llvm.loop !21

36:                                               ; preds = %51, %.preheader.i
  %indvars.iv51.i = phi i64 [ 1, %.preheader.i ], [ %indvars.iv.next52.i, %51 ]
  %37 = getelementptr inbounds nuw [4 x i32], ptr %6, i64 0, i64 %indvars.iv51.i
  %38 = load i32, ptr %37, align 4, !tbaa !10
  %.not42.i = icmp eq i32 %38, 0
  br i1 %.not42.i, label %av_image_fill_plane_sizes.exit, label %39

39:                                               ; preds = %36
  %or.cond.not.i = icmp eq i64 %indvars.iv51.i, 3
  br i1 %or.cond.not.i, label %43, label %40

40:                                               ; preds = %39
  %41 = load i8, ptr %29, align 2, !tbaa !22
  %42 = zext i8 %41 to i32
  br label %43

43:                                               ; preds = %40, %39
  %44 = phi i32 [ %42, %40 ], [ 0, %39 ]
  %45 = shl nuw i32 1, %44
  %46 = add i32 %30, %45
  %47 = ashr i32 %46, %44
  %48 = getelementptr inbounds nuw i64, ptr %7, i64 %indvars.iv51.i
  %49 = load i64, ptr %48, align 8, !tbaa !20
  %50 = sext i32 %47 to i64
  %mul43.i = tail call { i64, i1 } @llvm.umul.with.overflow.i64(i64 %50, i64 %49)
  %mul.ov44.i = extractvalue { i64, i1 } %mul43.i, 1
  br i1 %mul.ov44.i, label %av_image_fill_plane_sizes.exit.thread, label %51

51:                                               ; preds = %43
  %52 = mul i64 %49, %50
  %53 = getelementptr inbounds nuw i64, ptr %8, i64 %indvars.iv51.i
  store i64 %52, ptr %53, align 8, !tbaa !20
  %indvars.iv.next52.i = add nuw nsw i64 %indvars.iv51.i, 1
  %exitcond54.not.i = icmp eq i64 %indvars.iv.next52.i, 4
  br i1 %exitcond54.not.i, label %av_image_fill_plane_sizes.exit, label %36, !llvm.loop !23

av_image_fill_plane_sizes.exit.thread:            ; preds = %43, %16, %14, %20
  call void @llvm.lifetime.end.p0(i64 16, ptr nonnull %6) #11
  br label %.critedge

av_image_fill_plane_sizes.exit:                   ; preds = %36, %51, %27
  call void @llvm.lifetime.end.p0(i64 16, ptr nonnull %6) #11
  br label %54

54:                                               ; preds = %av_image_fill_plane_sizes.exit, %60
  %indvars.iv44 = phi i64 [ 0, %av_image_fill_plane_sizes.exit ], [ %indvars.iv.next45, %60 ]
  %.040 = phi i32 [ 0, %av_image_fill_plane_sizes.exit ], [ %62, %60 ]
  %55 = getelementptr inbounds nuw [4 x i64], ptr %8, i64 0, i64 %indvars.iv44
  %56 = load i64, ptr %55, align 8, !tbaa !20
  %57 = sub nsw i32 2147483647, %.040
  %58 = zext nneg i32 %57 to i64
  %59 = icmp ugt i64 %56, %58
  br i1 %59, label %.critedge, label %60

60:                                               ; preds = %54
  %61 = trunc nuw nsw i64 %56 to i32
  %62 = add i32 %.040, %61
  %indvars.iv.next45 = add nuw nsw i64 %indvars.iv44, 1
  %exitcond47.not = icmp eq i64 %indvars.iv.next45, 4
  br i1 %exitcond47.not, label %63, label %54, !llvm.loop !25

63:                                               ; preds = %60
  %.not = icmp eq ptr %3, null
  br i1 %.not, label %.critedge, label %64

64:                                               ; preds = %63
  store ptr %3, ptr %0, align 8, !tbaa !26
  br label %65

65:                                               ; preds = %64, %69
  %66 = phi ptr [ %3, %64 ], [ %73, %69 ]
  %indvars.iv48 = phi i64 [ 1, %64 ], [ %indvars.iv.next49, %69 ]
  %67 = getelementptr inbounds nuw [4 x i64], ptr %8, i64 0, i64 %indvars.iv48
  %68 = load i64, ptr %67, align 8, !tbaa !20
  %.not34 = icmp eq i64 %68, 0
  br i1 %.not34, label %.critedge, label %69

69:                                               ; preds = %65
  %70 = add nsw i64 %indvars.iv48, -1
  %71 = getelementptr inbounds [4 x i64], ptr %8, i64 0, i64 %70
  %72 = load i64, ptr %71, align 8, !tbaa !20
  %73 = getelementptr inbounds nuw i8, ptr %66, i64 %72
  %74 = getelementptr inbounds nuw ptr, ptr %0, i64 %indvars.iv48
  store ptr %73, ptr %74, align 8, !tbaa !26
  %indvars.iv.next49 = add nuw nsw i64 %indvars.iv48, 1
  %exitcond51.not = icmp eq i64 %indvars.iv.next49, 4
  br i1 %exitcond51.not, label %.critedge, label %65, !llvm.loop !27

.critedge:                                        ; preds = %54, %65, %69, %av_image_fill_plane_sizes.exit.thread, %63
  %.030 = phi i32 [ %62, %63 ], [ -22, %av_image_fill_plane_sizes.exit.thread ], [ %62, %69 ], [ %62, %65 ], [ -22, %54 ]
  call void @llvm.lifetime.end.p0(i64 32, ptr nonnull %8) #11
  call void @llvm.lifetime.end.p0(i64 32, ptr nonnull %7) #11
  ret i32 %.030
}